target datalayout = "e-m:e-p270:32:32-p271:32:32-p272:64:64-i64:64-i128:128-f80:128-n8:16:32:64-S128"
target triple = "x86_64-pc-linux-gnu"

; Function Attrs: mustprogress uwtable
define internal noundef zeroext i1 @_ZL6idcompRK17InteractionOfTypeS1_(ptr noundef nonnull align 8 dereferenceable(105) %0, ptr noundef nonnull align 8 dereferenceable(105) %1) #0 {
  %3 = alloca i1, align 1
  %4 = alloca ptr, align 8
  %5 = alloca ptr, align 8
  %6 = alloca i32, align 4
  %7 = alloca i32, align 4
  store ptr %0, ptr %4, align 8, !tbaa !137
  store ptr %1, ptr %5, align 8, !tbaa !137
  call void @llvm.lifetime.start.p0(i64 4, ptr %6) #19
  %8 = load ptr, ptr %4, align 8, !tbaa !137
  %9 = call noundef nonnull align 4 dereferenceable(4) ptr @_ZNK17InteractionOfType2aiEv(ptr noundef nonnull align 8 dereferenceable(105) %8)
  %10 = load i32, ptr %9, align 4, !tbaa !24
  %11 = load ptr, ptr %5, align 8, !tbaa !137
  %12 = call noundef nonnull align 4 dereferenceable(4) ptr @_ZNK17InteractionOfType2aiEv(ptr noundef nonnull align 8 dereferenceable(105) %11)
  %13 = load i32, ptr %12, align 4, !tbaa !24
  %14 = sub nsw i32 %10, %13
  store i32 %14, ptr %6, align 4, !tbaa !24
  %15 = icmp ne i32 %14, 0
  br i1 %15, label %34, label %16

16:                                               ; preds = %2
  %17 = load ptr, ptr %4, align 8, !tbaa !137
  %18 = call noundef nonnull align 4 dereferenceable(4) ptr @_ZNK17InteractionOfType2alEv(ptr noundef nonnull align 8 dereferenceable(105) %17)
  %19 = load i32, ptr %18, align 4, !tbaa !24
  %20 = load ptr, ptr %5, align 8, !tbaa !137
  %21 = call noundef nonnull align 4 dereferenceable(4) ptr @_ZNK17InteractionOfType2alEv(ptr noundef nonnull align 8 dereferenceable(105) %20)
  %22 = load i32, ptr %21, align 4, !tbaa !24
  %23 = sub nsw i32 %19, %22
  store i32 %23, ptr %6, align 4, !tbaa !24
  %24 = icmp ne i32 %23, 0
  br i1 %24, label %34, label %25

25:                                               ; preds = %16
  %26 = load ptr, ptr %4, align 8, !tbaa !137
  %27 = call noundef nonnull align 4 dereferenceable(4) ptr @_ZNK17InteractionOfType2ajEv(ptr noundef nonnull align 8 dereferenceable(105) %26)
  %28 = load i32, ptr %27, align 4, !tbaa !24
  %29 = load ptr, ptr %5, align 8, !tbaa !137
  %30 = call noundef nonnull align 4 dereferenceable(4) ptr @_ZNK17InteractionOfType2ajEv(ptr noundef nonnull align 8 dereferenceable(105) %29)
  %31 = load i32, ptr %30, align 4, !tbaa !24
  %32 = sub nsw i32 %28, %31
  store i32 %32, ptr %6, align 4, !tbaa !24
  %33 = icmp ne i32 %32, 0
  br i1 %33, label %34, label %37

34:                                               ; preds = %25, %16, %2
  %35 = load i32, ptr %6, align 4, !tbaa !24
  %36 = icmp slt i32 %35, 0
  store i1 %36, ptr %3, align 1
  store i32 1, ptr %7, align 4
  br label %45

37:                                               ; preds = %25
  %38 = load ptr, ptr %4, align 8, !tbaa !137
  %39 = call noundef nonnull align 4 dereferenceable(4) ptr @_ZNK17InteractionOfType2akEv(ptr noundef nonnull align 8 dereferenceable(105) %38)
  %40 = load i32, ptr %39, align 4, !tbaa !24
  %41 = load ptr, ptr %5, align 8, !tbaa !137
  %42 = call noundef nonnull align 4 dereferenceable(4) ptr @_ZNK17InteractionOfType2akEv(ptr noundef nonnull align 8 dereferenceable(105) %41)
  %43 = load i32, ptr %42, align 4, !tbaa !24
  %44 = icmp slt i32 %40, %43
  store i1 %44, ptr %3, align 1
  store i32 1, ptr %7, align 4
  br label %45

45:                                               ; preds = %37, %34
  call void @llvm.lifetime.end.p0(i64 4, ptr %6) #19
  %46 = load i1, ptr %3, align 1
  ret i1 %46
}