; Function Attrs: mustprogress uwtable
define internal noundef zeroext i1 @_ZL6idcompRK17InteractionOfTypeS1_(ptr noundef nonnull align 8 dereferenceable(105) %0, ptr noundef nonnull align 8 dereferenceable(105) %1) #0 {
  %3 = tail call noundef nonnull align 4 dereferenceable(4) ptr @_ZNK17InteractionOfType2aiEv(ptr noundef nonnull align 8 dereferenceable(105) %0)
  %4 = load i32, ptr %3, align 4, !tbaa !39
  %5 = tail call noundef nonnull align 4 dereferenceable(4) ptr @_ZNK17InteractionOfType2aiEv(ptr noundef nonnull align 8 dereferenceable(105) %1)
  %6 = load i32, ptr %5, align 4, !tbaa !39
  %7 = sub nsw i32 %4, %6
  %.not = icmp eq i32 %7, 0
  br i1 %.not, label %8, label %20

8:                                                ; preds = %2
  %9 = tail call noundef nonnull align 4 dereferenceable(4) ptr @_ZNK17InteractionOfType2alEv(ptr noundef nonnull align 8 dereferenceable(105) %0)
  %10 = load i32, ptr %9, align 4, !tbaa !39
  %11 = tail call noundef nonnull align 4 dereferenceable(4) ptr @_ZNK17InteractionOfType2alEv(ptr noundef nonnull align 8 dereferenceable(105) %1)
  %12 = load i32, ptr %11, align 4, !tbaa !39
  %13 = sub nsw i32 %10, %12
  %.not13 = icmp eq i32 %13, 0
  br i1 %.not13, label %14, label %20

14:                                               ; preds = %8
  %15 = tail call noundef nonnull align 4 dereferenceable(4) ptr @_ZNK17InteractionOfType2ajEv(ptr noundef nonnull align 8 dereferenceable(105) %0)
  %16 = load i32, ptr %15, align 4, !tbaa !39
  %17 = tail call noundef nonnull align 4 dereferenceable(4) ptr @_ZNK17InteractionOfType2ajEv(ptr noundef nonnull align 8 dereferenceable(105) %1)
  %18 = load i32, ptr %17, align 4, !tbaa !39
  %19 = sub nsw i32 %16, %18
  %.not14 = icmp eq i32 %19, 0
  br i1 %.not14, label %22, label %20

20:                                               ; preds = %14, %8, %2
  %.0 = phi i32 [ %7, %2 ], [ %13, %8 ], [ %19, %14 ]
  %21 = icmp slt i32 %.0, 0
  br label %28

22:                                               ; preds = %14
  %23 = tail call noundef nonnull align 4 dereferenceable(4) ptr @_ZNK17InteractionOfType2akEv(ptr noundef nonnull align 8 dereferenceable(105) %0)
  %24 = load i32, ptr %23, align 4, !tbaa !39
  %25 = tail call noundef nonnull align 4 dereferenceable(4) ptr @_ZNK17InteractionOfType2akEv(ptr noundef nonnull align 8 dereferenceable(105) %1)
  %26 = load i32, ptr %25, align 4, !tbaa !39
  %27 = icmp slt i32 %24, %26
  br label %28

28:                                               ; preds = %22, %20
  %.09 = phi i1 [ %21, %20 ], [ %27, %22 ]
  ret i1 %.09
}